; ModuleID = '50/573.c'
source_filename = "50/573.c"
target datalayout = "e-m:e-p270:32:32-p271:32:32-p272:64:64-i64:64-f80:128-n8:16:32:64-S128"
target triple = "x86_64-pc-linux-gnu"

@.str = private unnamed_addr constant [3 x i8] c"%d\00", align 1
@.str.1 = private unnamed_addr constant [4 x i8] c"%d\0A\00", align 1

; Function Attrs: noinline nounwind uwtable
define dso_local i32 @main() #0 {
  %1 = alloca i32, align 4
  %2 = alloca [12 x i32], align 16
  %3 = alloca i32, align 4
  %4 = alloca i32, align 4
  store i32 0, i32* %1, align 4
  %5 = call i32 (i8*, ...) @__isoc99_scanf(i8* getelementptr inbounds ([3 x i8], [3 x i8]* @.str, i64 0, i64 0), i32* %3)
  %6 = load i32, i32* %3, align 4
  %7 = add nsw i32 5, %6
  %8 = srem i32 %7, 7
  %9 = getelementptr inbounds [12 x i32], [12 x i32]* %2, i64 0, i64 0
  store i32 %8, i32* %9, align 16
  %10 = load i32, i32* %3, align 4
  %11 = add nsw i32 1, %10
  %12 = srem i32 %11, 7
  %13 = getelementptr inbounds [12 x i32], [12 x i32]* %2, i64 0, i64 1
  store i32 %12, i32* %13, align 4
  %14 = load i32, i32* %3, align 4
  %15 = add nsw i32 1, %14
  %16 = srem i32 %15, 7
  %17 = getelementptr inbounds [12 x i32], [12 x i32]* %2, i64 0, i64 2
  store i32 %16, i32* %17, align 8
  %18 = load i32, i32* %3, align 4
  %19 = add nsw i32 4, %18
  %20 = srem i32 %19, 7
  %21 = getelementptr inbounds [12 x i32], [12 x i32]* %2, i64 0, i64 3
  store i32 %20, i32* %21, align 4
  %22 = load i32, i32* %3, align 4
  %23 = add nsw i32 6, %22
  %24 = srem i32 %23, 7
  %25 = getelementptr inbounds [12 x i32], [12 x i32]* %2, i64 0, i64 4
  store i32 %24, i32* %25, align 16
  %26 = load i32, i32* %3, align 4
  %27 = add nsw i32 2, %26
  %28 = srem i32 %27, 7
  %29 = getelementptr inbounds [12 x i32], [12 x i32]* %2, i64 0, i64 5
  store i32 %28, i32* %29, align 4
  %30 = load i32, i32* %3, align 4
  %31 = add nsw i32 4, %30
  %32 = srem i32 %31, 7
  %33 = getelementptr inbounds [12 x i32], [12 x i32]* %2, i64 0, i64 6
  store i32 %32, i32* %33, align 8
  %34 = load i32, i32* %3, align 4
  %35 = add nsw i32 0, %34
  %36 = srem i32 %35, 7
  %37 = getelementptr inbounds [12 x i32], [12 x i32]* %2, i64 0, i64 7
  store i32 %36, i32* %37, align 4
  %38 = load i32, i32* %3, align 4
  %39 = add nsw i32 3, %38
  %40 = srem i32 %39, 7
  %41 = getelementptr inbounds [12 x i32], [12 x i32]* %2, i64 0, i64 8
  store i32 %40, i32* %41, align 16
  %42 = load i32, i32* %3, align 4
  %43 = add nsw i32 5, %42
  %44 = srem i32 %43, 7
  %45 = getelementptr inbounds [12 x i32], [12 x i32]* %2, i64 0, i64 9
  store i32 %44, i32* %45, align 4
  %46 = load i32, i32* %3, align 4
  %47 = add nsw i32 1, %46
  %48 = srem i32 %47, 7
  %49 = getelementptr inbounds [12 x i32], [12 x i32]* %2, i64 0, i64 10
  store i32 %48, i32* %49, align 8
  %50 = load i32, i32* %3, align 4
  %51 = add nsw i32 3, %50
  %52 = srem i32 %51, 7
  %53 = getelementptr inbounds [12 x i32], [12 x i32]* %2, i64 0, i64 11
  store i32 %52, i32* %53, align 4
  store i32 0, i32* %4, align 4
  br label %54

54:                                               ; preds = %68, %0
  %55 = load i32, i32* %4, align 4
  %56 = icmp slt i32 %55, 12
  br i1 %56, label %57, label %71

57:                                               ; preds = %54
  %58 = load i32, i32* %4, align 4
  %59 = sext i32 %58 to i64
  %60 = getelementptr inbounds [12 x i32], [12 x i32]* %2, i64 0, i64 %59
  %61 = load i32, i32* %60, align 4
  %62 = icmp eq i32 %61, 5
  br i1 %62, label %63, label %67

63:                                               ; preds = %57
  %64 = load i32, i32* %4, align 4
  %65 = add nsw i32 %64, 1
  %66 = call i32 (i8*, ...) @printf(i8* getelementptr inbounds ([4 x i8], [4 x i8]* @.str.1, i64 0, i64 0), i32 %65)
  br label %67

67:                                               ; preds = %63, %57
  br label %68

68:                                               ; preds = %67
  %69 = load i32, i32* %4, align 4
  %70 = add nsw i32 %69, 1
  store i32 %70, i32* %4, align 4
  br label %54

71:                                               ; preds = %54
  ret i32 0
}

declare dso_local i32 @__isoc99_scanf(i8*, ...) #1

declare dso_local i32 @printf(i8*, ...) #1


!llvm.module.flags = !{!0}
!llvm.ident = !{!1}

!0 = !{i32 1, !"wchar_size", i32 4}
!1 = !{!"clang version 10.0.0-4ubuntu1 "}
